target datalayout = "e-m:e-p270:32:32-p271:32:32-p272:64:64-i64:64-i128:128-f80:128-n8:16:32:64-S128"
target triple = "x86_64-pc-linux-gnu"

@hf_s7comm_tis_parametersize = internal global i32 0, align 4
@hf_s7comm_tis_datasize = internal global i32 0, align 4

; Function Attrs: null_pointer_is_valid sspstrong uwtable
define internal i32 @s7comm_decode_ud_tis_subfunc(ptr noundef %0, ptr noundef %1, i8 noundef zeroext %2, i8 noundef zeroext %3, i32 noundef %4) #0 {
  %6 = alloca ptr, align 8
  %7 = alloca ptr, align 8
  %8 = alloca i8, align 1
  %9 = alloca i8, align 1
  %10 = alloca i32, align 4
  %11 = alloca i16, align 2
  %12 = alloca i16, align 2
  store ptr %0, ptr %6, align 8
  store ptr %1, ptr %7, align 8
  store i8 %2, ptr %8, align 1
  store i8 %3, ptr %9, align 1
  store i32 %4, ptr %10, align 4
  call void @llvm.lifetime.start.p0(i64 2, ptr %11) #8
  store i16 0, ptr %11, align 2
  call void @llvm.lifetime.start.p0(i64 2, ptr %12) #8
  store i16 0, ptr %12, align 2
  %13 = load ptr, ptr %6, align 8
  %14 = load i32, ptr %10, align 4
  %15 = call zeroext i16 @tvb_get_ntohs(ptr noundef %13, i32 noundef %14)
  store i16 %15, ptr %11, align 2
  %16 = load ptr, ptr %7, align 8
  %17 = load i32, ptr @hf_s7comm_tis_parametersize, align 4
  %18 = load ptr, ptr %6, align 8
  %19 = load i32, ptr %10, align 4
  %20 = call ptr @proto_tree_add_item(ptr noundef %16, i32 noundef %17, ptr noundef %18, i32 noundef %19, i32 noundef 2, i32 noundef 0)
  %21 = load i32, ptr %10, align 4
  %22 = add i32 %21, 2
  store i32 %22, ptr %10, align 4
  %23 = load ptr, ptr %6, align 8
  %24 = load i32, ptr %10, align 4
  %25 = call zeroext i16 @tvb_get_ntohs(ptr noundef %23, i32 noundef %24)
  store i16 %25, ptr %12, align 2
  %26 = load ptr, ptr %7, align 8
  %27 = load i32, ptr @hf_s7comm_tis_datasize, align 4
  %28 = load ptr, ptr %6, align 8
  %29 = load i32, ptr %10, align 4
  %30 = call ptr @proto_tree_add_item(ptr noundef %26, i32 noundef %27, ptr noundef %28, i32 noundef %29, i32 noundef 2, i32 noundef 0)
  %31 = load i32, ptr %10, align 4
  %32 = add i32 %31, 2
  store i32 %32, ptr %10, align 4
  %33 = load ptr, ptr %6, align 8
  %34 = load ptr, ptr %7, align 8
  %35 = load i8, ptr %8, align 1
  %36 = load i16, ptr %11, align 2
  %37 = load i32, ptr %10, align 4
  %38 = call i32 @s7comm_decode_ud_tis_param(ptr noundef %33, ptr noundef %34, i8 noundef zeroext %35, i16 noundef zeroext %36, i32 noundef %37)
  store i32 %38, ptr %10, align 4
  %39 = load ptr, ptr %6, align 8
  %40 = load ptr, ptr %7, align 8
  %41 = load i8, ptr %8, align 1
  %42 = load i8, ptr %9, align 1
  %43 = load i16, ptr %12, align 2
  %44 = load i32, ptr %10, align 4
  %45 = call i32 @s7comm_decode_ud_tis_data(ptr noundef %39, ptr noundef %40, i8 noundef zeroext %41, i8 noundef zeroext %42, i16 noundef zeroext %43, i32 noundef %44)
  store i32 %45, ptr %10, align 4
  %46 = load i32, ptr %10, align 4
  call void @llvm.lifetime.end.p0(i64 2, ptr %12) #8
  call void @llvm.lifetime.end.p0(i64 2, ptr %11) #8
  ret i32 %46
}