; Function Attrs: null_pointer_is_valid sspstrong uwtable
define internal fastcc i32 @s7comm_decode_ud_tis_subfunc(ptr noundef %0, ptr noundef %1, i8 noundef zeroext range(i8 0, 4) %2, i8 noundef zeroext %3, i32 noundef %4) unnamed_addr #0 {
  %6 = tail call zeroext i16 @tvb_get_ntohs(ptr noundef %0, i32 noundef %4)
  %7 = load i32, ptr @hf_s7comm_tis_parametersize, align 4
  %8 = tail call ptr @proto_tree_add_item(ptr noundef %1, i32 noundef %7, ptr noundef %0, i32 noundef %4, i32 noundef 2, i32 noundef 0)
  %9 = add i32 %4, 2
  %10 = tail call zeroext i16 @tvb_get_ntohs(ptr noundef %0, i32 noundef %9)
  %11 = load i32, ptr @hf_s7comm_tis_datasize, align 4
  %12 = tail call ptr @proto_tree_add_item(ptr noundef %1, i32 noundef %11, ptr noundef %0, i32 noundef %9, i32 noundef 2, i32 noundef 0)
  %13 = add i32 %4, 4
  %14 = tail call fastcc i32 @s7comm_decode_ud_tis_param(ptr noundef %0, ptr noundef %1, i8 noundef zeroext %2, i16 noundef zeroext %6, i32 noundef %13)
  %15 = tail call fastcc i32 @s7comm_decode_ud_tis_data(ptr noundef %0, ptr noundef %1, i8 noundef zeroext %2, i8 noundef zeroext %3, i16 noundef zeroext %10, i32 noundef %14)
  ret i32 %15
}